; Function Attrs: mustprogress nounwind uwtable
define internal fastcc void @"_ZZN12_GLOBAL__N_117ArchToolsetHelperEMN19cmCMakePresetsGraph15ConfigurePresetENSt7__cxx1112basic_stringIcSt11char_traitsIcESaIcEEEMS1_St8optionalINS0_19ArchToolsetStrategyEEEN3$_0D2Ev"(ptr noundef nonnull align 8 dereferenceable(88) %0) unnamed_addr #4 align 2 personality ptr @__gxx_personality_v0 {
  %2 = getelementptr inbounds i8, ptr %0, i64 16
  %3 = getelementptr inbounds i8, ptr %0, i64 64
  %4 = load ptr, ptr %3, align 8
  %.not.i.i.i = icmp eq ptr %4, null
  br i1 %.not.i.i.i, label %_ZNSt8functionIFS_IFvPKN4Json5ValueEP11cmJSONStateEEN10JsonErrors11ObjectErrorERKSt6vectorINSt7__cxx1112basic_stringIcSt11char_traitsIcESaIcEEESaISG_EEEED2Ev.exit.i, label %5

5:                                                ; preds = %1
  %6 = getelementptr inbounds i8, ptr %0, i64 48
  %7 = invoke noundef zeroext i1 %4(ptr noundef nonnull align 8 dereferenceable(16) %6, ptr noundef nonnull align 8 dereferenceable(16) %6, i32 noundef 3)
          to label %_ZNSt8functionIFS_IFvPKN4Json5ValueEP11cmJSONStateEEN10JsonErrors11ObjectErrorERKSt6vectorINSt7__cxx1112basic_stringIcSt11char_traitsIcESaIcEEESaISG_EEEED2Ev.exit.i unwind label %8

8:                                                ; preds = %5
  %9 = landingpad { ptr, i32 }
          catch ptr null
  %10 = extractvalue { ptr, i32 } %9, 0
  tail call void @__clang_call_terminate(ptr %10) #18
  unreachable

_ZNSt8functionIFS_IFvPKN4Json5ValueEP11cmJSONStateEEN10JsonErrors11ObjectErrorERKSt6vectorINSt7__cxx1112basic_stringIcSt11char_traitsIcESaIcEEESaISG_EEEED2Ev.exit.i: ; preds = %5, %1
  %11 = load ptr, ptr %2, align 8
  %12 = getelementptr inbounds i8, ptr %0, i64 24
  %13 = load ptr, ptr %12, align 8
  %.not4.i.i.i.i.i = icmp eq ptr %11, %13
  br i1 %.not4.i.i.i.i.i, label %_ZSt8_DestroyIPN19cmJSONHelperBuilder6ObjectIN19cmCMakePresetsGraph15ConfigurePresetEE6MemberES5_EvT_S7_RSaIT0_E.exit.i.i, label %.lr.ph.i.i.i.i.i

.lr.ph.i.i.i.i.i:                                 ; preds = %_ZNSt8functionIFS_IFvPKN4Json5ValueEP11cmJSONStateEEN10JsonErrors11ObjectErrorERKSt6vectorINSt7__cxx1112basic_stringIcSt11char_traitsIcESaIcEEESaISG_EEEED2Ev.exit.i, %_ZSt8_DestroyIN19cmJSONHelperBuilder6ObjectIN19cmCMakePresetsGraph15ConfigurePresetEE6MemberEEvPT_.exit.i.i.i.i.i
  %.05.i.i.i.i.i = phi ptr [ %22, %_ZSt8_DestroyIN19cmJSONHelperBuilder6ObjectIN19cmCMakePresetsGraph15ConfigurePresetEE6MemberEEvPT_.exit.i.i.i.i.i ], [ %11, %_ZNSt8functionIFS_IFvPKN4Json5ValueEP11cmJSONStateEEN10JsonErrors11ObjectErrorERKSt6vectorINSt7__cxx1112basic_stringIcSt11char_traitsIcESaIcEEESaISG_EEEED2Ev.exit.i ]
  %14 = getelementptr inbounds i8, ptr %.05.i.i.i.i.i, i64 32
  %15 = load ptr, ptr %14, align 8
  %.not.i.i.i.i.i.i.i.i.i = icmp eq ptr %15, null
  br i1 %.not.i.i.i.i.i.i.i.i.i, label %_ZSt8_DestroyIN19cmJSONHelperBuilder6ObjectIN19cmCMakePresetsGraph15ConfigurePresetEE6MemberEEvPT_.exit.i.i.i.i.i, label %16

16:                                               ; preds = %.lr.ph.i.i.i.i.i
  %17 = getelementptr inbounds i8, ptr %.05.i.i.i.i.i, i64 16
  %18 = invoke noundef zeroext i1 %15(ptr noundef nonnull align 8 dereferenceable(16) %17, ptr noundef nonnull align 8 dereferenceable(16) %17, i32 noundef 3)
          to label %_ZSt8_DestroyIN19cmJSONHelperBuilder6ObjectIN19cmCMakePresetsGraph15ConfigurePresetEE6MemberEEvPT_.exit.i.i.i.i.i unwind label %19

19:                                               ; preds = %16
  %20 = landingpad { ptr, i32 }
          catch ptr null
  %21 = extractvalue { ptr, i32 } %20, 0
  tail call void @__clang_call_terminate(ptr %21) #18
  unreachable

_ZSt8_DestroyIN19cmJSONHelperBuilder6ObjectIN19cmCMakePresetsGraph15ConfigurePresetEE6MemberEEvPT_.exit.i.i.i.i.i: ; preds = %16, %.lr.ph.i.i.i.i.i
  %22 = getelementptr inbounds i8, ptr %.05.i.i.i.i.i, i64 56
  %.not.i.i.i.i.i = icmp eq ptr %22, %13
  br i1 %.not.i.i.i.i.i, label %_ZSt8_DestroyIPN19cmJSONHelperBuilder6ObjectIN19cmCMakePresetsGraph15ConfigurePresetEE6MemberES5_EvT_S7_RSaIT0_E.exitthread-pre-split.i.i, label %.lr.ph.i.i.i.i.i, !llvm.loop !5

_ZSt8_DestroyIPN19cmJSONHelperBuilder6ObjectIN19cmCMakePresetsGraph15ConfigurePresetEE6MemberES5_EvT_S7_RSaIT0_E.exitthread-pre-split.i.i: ; preds = %_ZSt8_DestroyIN19cmJSONHelperBuilder6ObjectIN19cmCMakePresetsGraph15ConfigurePresetEE6MemberEEvPT_.exit.i.i.i.i.i
  %.pr.i.i = load ptr, ptr %2, align 8
  br label %_ZSt8_DestroyIPN19cmJSONHelperBuilder6ObjectIN19cmCMakePresetsGraph15ConfigurePresetEE6MemberES5_EvT_S7_RSaIT0_E.exit.i.i

_ZSt8_DestroyIPN19cmJSONHelperBuilder6ObjectIN19cmCMakePresetsGraph15ConfigurePresetEE6MemberES5_EvT_S7_RSaIT0_E.exit.i.i: ; preds = %_ZSt8_DestroyIPN19cmJSONHelperBuilder6ObjectIN19cmCMakePresetsGraph15ConfigurePresetEE6MemberES5_EvT_S7_RSaIT0_E.exitthread-pre-split.i.i, %_ZNSt8functionIFS_IFvPKN4Json5ValueEP11cmJSONStateEEN10JsonErrors11ObjectErrorERKSt6vectorINSt7__cxx1112basic_stringIcSt11char_traitsIcESaIcEEESaISG_EEEED2Ev.exit.i
  %23 = phi ptr [ %.pr.i.i, %_ZSt8_DestroyIPN19cmJSONHelperBuilder6ObjectIN19cmCMakePresetsGraph15ConfigurePresetEE6MemberES5_EvT_S7_RSaIT0_E.exitthread-pre-split.i.i ], [ %11, %_ZNSt8functionIFS_IFvPKN4Json5ValueEP11cmJSONStateEEN10JsonErrors11ObjectErrorERKSt6vectorINSt7__cxx1112basic_stringIcSt11char_traitsIcESaIcEEESaISG_EEEED2Ev.exit.i ]
  %.not.i.i.i.i = icmp eq ptr %23, null
  br i1 %.not.i.i.i.i, label %_ZN19cmJSONHelperBuilder6ObjectIN19cmCMakePresetsGraph15ConfigurePresetEED2Ev.exit, label %24

24:                                               ; preds = %_ZSt8_DestroyIPN19cmJSONHelperBuilder6ObjectIN19cmCMakePresetsGraph15ConfigurePresetEE6MemberES5_EvT_S7_RSaIT0_E.exit.i.i
  tail call void @_ZdlPv(ptr noundef nonnull %23) #19
  br label %_ZN19cmJSONHelperBuilder6ObjectIN19cmCMakePresetsGraph15ConfigurePresetEED2Ev.exit

_ZN19cmJSONHelperBuilder6ObjectIN19cmCMakePresetsGraph15ConfigurePresetEED2Ev.exit: ; preds = %_ZSt8_DestroyIPN19cmJSONHelperBuilder6ObjectIN19cmCMakePresetsGraph15ConfigurePresetEE6MemberES5_EvT_S7_RSaIT0_E.exit.i.i, %24
  ret void
}